#include <math.h>
#include <stdio.h>
#include <stdlib.h>
#include <string.h>

main()
{
int n,m,a[100],i;
scanf("%d %d\n",&n,&m);
for(i=0;i<n;i++)
scanf("%d ",&a[i]);
for(i=(n-m);i<n;i++)
printf("%d ",a[i]);
for(i=0;i<(n-m-1);i++)
printf("%d ",a[i]);
if(i=(n-m-1)) printf("%d",a[i]);
}

